#include <math.h>
#include <stdio.h>
#include <stdlib.h>
#include <string.h>

int main()
{
	int n,i,j,k;
	char a[300];
	scanf("%d",&n);
	getchar();
	for(i=1;i<=n;i++)
	{
		for(j=1;j<300;j++)
		{
		     scanf("%c",&a[j]);
			 if(a[j]==10)
			 {
				 k=j-1;
				 break;
			 }
		}
		for(j=1;j<=k;j++)
		{
			switch(a[j])
			{
				case'A':a[j]='T';break;
				case'T':a[j]='A';break;
				case'C':a[j]='G';break;
				case'G':a[j]='C';break;
			}


		}
		for(j=1;j<=k;j++)
		{
			printf("%c",a[j]);
		}
		printf("\n");
	}
	return 0;
}